-----BEGIN CERTIFICATE-----
MIICFjCCAb2gAwIBAgIFGZAiAAIwCgYIKoZIzj0EAwIweDELMAkGA1UEBhMCSUwx
FTATBgNVBAgTDE1vZGknaW4gSWxpdDEQMA4GA1UEChMHTmV0RnJlZTEVMBMGA1UE
CxMMbmV0ZnJlZS5saW5rMSkwJwYDVQQDEyBOZXRGcmVlIFJvb3QgQ0EgMTk5MC0y
MjAwIEVDQzI1NjAgFw05MDAxMDEwMDAwMDBaGA8yMjAwMDEwMTAwMDAwMFoweDEL
MAkGA1UEBhMCSUwxFTATBgNVBAgTDE1vZGknaW4gSWxpdDEQMA4GA1UEChMHTmV0
RnJlZTEVMBMGA1UECxMMbmV0ZnJlZS5saW5rMSkwJwYDVQQDEyBOZXRGcmVlIFJv
b3QgQ0EgMTk5MC0yMjAwIEVDQzI1NjBZMBMGByqGSM49AgEGCCqGSM49AwEHA0IA
BPDj6XBPP1qJms+9SaEM/MLFF8hYzl62+VQ75h4f3P2fjl2lmCwHHPZNBx9wZ0Tl
uU87urMCuWC+ZK4+CTwL+1CjMjAwMA8GA1UdEwEB/wQFMAMBAf8wHQYDVR0OBBYE
FKuZotWrhs/16LExmLa1AZdHHugOMAoGCCqGSM49BAMCA0cAMEQCICn+iBiR2nh1
YubJg+jg5Ik9Fez0RDERCT7zBPDoOYJbAiAiGoxwGufKRj0a1Ic1gs9TooCVaOel
KBnJYvXN+rZPWQ==
-----END CERTIFICATE-----
Certificate:
    Data:
        Version: 3 (0x2)
        Serial Number: 109792329730 (0x1990220002)
        Signature Algorithm: ecdsa-with-SHA256
        Issuer: C = IL, ST = Modi'in Ilit, O = NetFree, OU = netfree.link, CN = NetFree Root CA 1990-2200 ECC256
        Validity
            Not Before: Jan  1 00:00:00 1990 GMT
            Not After : Jan  1 00:00:00 2200 GMT
        Subject: C = IL, ST = Modi'in Ilit, O = NetFree, OU = netfree.link, CN = NetFree Root CA 1990-2200 ECC256
        Subject Public Key Info:
            Public Key Algorithm: id-ecPublicKey
                Public-Key: (256 bit)
                pub:
                    04:f0:e3:e9:70:4f:3f:5a:89:9a:cf:bd:49:a1:0c:
                    fc:c2:c5:17:c8:58:ce:5e:b6:f9:54:3b:e6:1e:1f:
                    dc:fd:9f:8e:5d:a5:98:2c:07:1c:f6:4d:07:1f:70:
                    67:44:e5:b9:4f:3b:ba:b3:02:b9:60:be:64:ae:3e:
                    09:3c:0b:fb:50
                ASN1 OID: prime256v1
                NIST CURVE: P-256
        X509v3 extensions:
            X509v3 Basic Constraints: critical
                CA:TRUE
            X509v3 Subject Key Identifier: 
                AB:99:A2:D5:AB:86:CF:F5:E8:B1:31:98:B6:B5:01:97:47:1E:E8:0E
    Signature Algorithm: ecdsa-with-SHA256
         30:44:02:20:29:fe:88:18:91:da:78:75:62:e6:c9:83:e8:e0:
         e4:89:3d:15:ec:f4:44:31:11:09:3e:f3:04:f0:e8:39:82:5b:
         02:20:22:1a:8c:70:1a:e7:ca:46:3d:1a:d4:87:35:82:cf:53:
         a2:80:95:68:e7:a5:28:19:c9:62:f5:cd:fa:b6:4f:59
