-----BEGIN CERTIFICATE-----
MIIF0jCCA7qgAwIBAgIFGZAgNwQwDQYJKoZIhvcNAQELBQAweDELMAkGA1UEBhMC
SUwxFTATBgNVBAgTDE1vZGknaW4gSWxpdDEQMA4GA1UEChMHTmV0RnJlZTEVMBMG
A1UECxMMbmV0ZnJlZS5saW5rMSkwJwYDVQQDEyBOZXRGcmVlIFJvb3QgQ0EgWDIg
MTk5MC0yMDM3IFJTQTAeFw05MDAxMDEwMDAwMDBaFw0zNzAxMDEwMDAwMDBaMHgx
CzAJBgNVBAYTAklMMRUwEwYDVQQIEwxNb2RpJ2luIElsaXQxEDAOBgNVBAoTB05l
dEZyZWUxFTATBgNVBAsTDG5ldGZyZWUubGluazEpMCcGA1UEAxMgTmV0RnJlZSBS
b290IENBIFgyIDE5OTAtMjAzNyBSU0EwggIiMA0GCSqGSIb3DQEBAQUAA4ICDwAw
ggIKAoICAQCWIwjdzSVXMndeaY2L5SuApZ3AM5Ese8qG8GcSTFy7rcxRMr9WhQjw
PaVLiLPJvZQ0b0JiULijzCTOUGjGJPW8XD8SUJ1L4/uztCGakN5NqFSYPPCUwiCc
Rs4rt0QJ/OqvmQ1bSvAkDReMcraAd/EkcTAS96zw2L8eGINCCqg9mQd689lspllZ
5p5V1SXK8W2+yyc+p1nh/9JA9sxPmepgzBEfUvS2oD0Jv8lze7gAtBSOy61Y4LJM
YzhU/g4RJYQ9M1OswQKv2xPLcX1CZY7f2R6Yzp7JtWtKl9IidxN2EOY5+JRf4jAs
KzpECOX8bFx90g9RrzuMopgIEdAZ+Pgy3Q0qQ9EXWPBpefUmLPwOTSqfUf6BeTN/
pBOEE8+WNDb5WNOcnFUvOkO0ukgSOEwDq862HYMooQySNAypXTQMdA45NUKnUNTl
+YvgCGKfpZWcAYvKihI6LJ6Vv6VMn5EM2JRyM+/jwSLnUYk+d5Iuef92ZcmbLnQi
MZ/tz7frG0Wc24U6qrr1S0d2oQvA/HGwbiHY6MZtoMiizXfZ5NpodxC/aYL6Jwui
Eip71JK+67uR3jfHHPybfsGMrmu6huAjVaUcIxDdLyHRrXZmUyD1n5GkrgwGiY6X
pKwUMpZtBwPMuKgFw17SGNspBTQY2xgToInba1cAEB5yd+rULk91wwIDAQABo2Mw
YTAOBgNVHQ8BAf8EBAMCAYYwDwYDVR0TAQH/BAUwAwEB/zAdBgNVHQ4EFgQUXjqt
g4/1lTb7JHgsFQDH0DY65D8wHwYDVR0jBBgwFoAUXjqtg4/1lTb7JHgsFQDH0DY6
5D8wDQYJKoZIhvcNAQELBQADggIBAH9CcijMR/pzvjoDHOXTsUfaCy8ok9RL+6/9
OElQgt3Y5hE/EB2DT4lJJWgZk3tFQaPlhR6EPp9rg1nRqUJc3F6oBhnjGbRKvTbT
MwZ2U49L7JQkyKyxJMN+RUFG6IS7CXLRtjwZP32zuOHcXHIv5CPdS0YrlDbb6tXL
4qx6+QQfSbfdcSicAqhqk7kB1Gp5yyIyfZAFYJmTlbYUve+4L+dPEnTgjaq3QuYH
ep8k1HtbWLEQuwXRc5IM+6uVj4ue2j/2D+Q/fQ3Kh+TohGZ7BZyPbos/ksGxSX6e
U+Kl5EgatPeoWTg2AViVOIC1sf8r7DxcuH1wC9W4+T5F69ny3/re5m78f4vGK4l2
nEtNkkLYy61lnXlh8sI4sfgUeSlslgsa9noGHX0pG8be9e+oc5djDI6fpjUyytql
5hs7LorplZrIlRh5KQs9RiL6RSnG7uaa4EoleXeuWMyYBTUjWKfZd1hn+Jw2bZGb
ET8RHJSRnL6LAt4JXJJwiFMPdQU8YEveZLyz7uwQXo3/3GATutZwCE0VTnUSg+A4
jlyTEFGT5IDZ1uW9npFWi838q5Rl1OJ3D0TJHfMj/e5/ka/DcNH6rue5gNVkg0Y/
5UnVK4+zs6mU7wOiYt3LX6hk+EL9hqZauQRdInOVlAVwjF3vD4WRbRNu8m1TaWov
PrB2/vYu
-----END CERTIFICATE-----
Certificate:
    Data:
        Version: 3 (0x2)
        Serial Number: 109792212740 (0x1990203704)
        Signature Algorithm: sha256WithRSAEncryption
        Issuer: C = IL, ST = Modi'in Ilit, O = NetFree, OU = netfree.link, CN = NetFree Root CA X2 1990-2037 RSA
        Validity
            Not Before: Jan  1 00:00:00 1990 GMT
            Not After : Jan  1 00:00:00 2037 GMT
        Subject: C = IL, ST = Modi'in Ilit, O = NetFree, OU = netfree.link, CN = NetFree Root CA X2 1990-2037 RSA
        Subject Public Key Info:
            Public Key Algorithm: rsaEncryption
                RSA Public-Key: (4096 bit)
                Modulus:
                    00:96:23:08:dd:cd:25:57:32:77:5e:69:8d:8b:e5:
                    2b:80:a5:9d:c0:33:91:2c:7b:ca:86:f0:67:12:4c:
                    5c:bb:ad:cc:51:32:bf:56:85:08:f0:3d:a5:4b:88:
                    b3:c9:bd:94:34:6f:42:62:50:b8:a3:cc:24:ce:50:
                    68:c6:24:f5:bc:5c:3f:12:50:9d:4b:e3:fb:b3:b4:
                    21:9a:90:de:4d:a8:54:98:3c:f0:94:c2:20:9c:46:
                    ce:2b:b7:44:09:fc:ea:af:99:0d:5b:4a:f0:24:0d:
                    17:8c:72:b6:80:77:f1:24:71:30:12:f7:ac:f0:d8:
                    bf:1e:18:83:42:0a:a8:3d:99:07:7a:f3:d9:6c:a6:
                    59:59:e6:9e:55:d5:25:ca:f1:6d:be:cb:27:3e:a7:
                    59:e1:ff:d2:40:f6:cc:4f:99:ea:60:cc:11:1f:52:
                    f4:b6:a0:3d:09:bf:c9:73:7b:b8:00:b4:14:8e:cb:
                    ad:58:e0:b2:4c:63:38:54:fe:0e:11:25:84:3d:33:
                    53:ac:c1:02:af:db:13:cb:71:7d:42:65:8e:df:d9:
                    1e:98:ce:9e:c9:b5:6b:4a:97:d2:22:77:13:76:10:
                    e6:39:f8:94:5f:e2:30:2c:2b:3a:44:08:e5:fc:6c:
                    5c:7d:d2:0f:51:af:3b:8c:a2:98:08:11:d0:19:f8:
                    f8:32:dd:0d:2a:43:d1:17:58:f0:69:79:f5:26:2c:
                    fc:0e:4d:2a:9f:51:fe:81:79:33:7f:a4:13:84:13:
                    cf:96:34:36:f9:58:d3:9c:9c:55:2f:3a:43:b4:ba:
                    48:12:38:4c:03:ab:ce:b6:1d:83:28:a1:0c:92:34:
                    0c:a9:5d:34:0c:74:0e:39:35:42:a7:50:d4:e5:f9:
                    8b:e0:08:62:9f:a5:95:9c:01:8b:ca:8a:12:3a:2c:
                    9e:95:bf:a5:4c:9f:91:0c:d8:94:72:33:ef:e3:c1:
                    22:e7:51:89:3e:77:92:2e:79:ff:76:65:c9:9b:2e:
                    74:22:31:9f:ed:cf:b7:eb:1b:45:9c:db:85:3a:aa:
                    ba:f5:4b:47:76:a1:0b:c0:fc:71:b0:6e:21:d8:e8:
                    c6:6d:a0:c8:a2:cd:77:d9:e4:da:68:77:10:bf:69:
                    82:fa:27:0b:a2:12:2a:7b:d4:92:be:eb:bb:91:de:
                    37:c7:1c:fc:9b:7e:c1:8c:ae:6b:ba:86:e0:23:55:
                    a5:1c:23:10:dd:2f:21:d1:ad:76:66:53:20:f5:9f:
                    91:a4:ae:0c:06:89:8e:97:a4:ac:14:32:96:6d:07:
                    03:cc:b8:a8:05:c3:5e:d2:18:db:29:05:34:18:db:
                    18:13:a0:89:db:6b:57:00:10:1e:72:77:ea:d4:2e:
                    4f:75:c3
                Exponent: 65537 (0x10001)
        X509v3 extensions:
            X509v3 Key Usage: critical
                Digital Signature, Certificate Sign, CRL Sign
            X509v3 Basic Constraints: critical
                CA:TRUE
            X509v3 Subject Key Identifier: 
                5E:3A:AD:83:8F:F5:95:36:FB:24:78:2C:15:00:C7:D0:36:3A:E4:3F
            X509v3 Authority Key Identifier: 
                keyid:5E:3A:AD:83:8F:F5:95:36:FB:24:78:2C:15:00:C7:D0:36:3A:E4:3F

    Signature Algorithm: sha256WithRSAEncryption
         7f:42:72:28:cc:47:fa:73:be:3a:03:1c:e5:d3:b1:47:da:0b:
         2f:28:93:d4:4b:fb:af:fd:38:49:50:82:dd:d8:e6:11:3f:10:
         1d:83:4f:89:49:25:68:19:93:7b:45:41:a3:e5:85:1e:84:3e:
         9f:6b:83:59:d1:a9:42:5c:dc:5e:a8:06:19:e3:19:b4:4a:bd:
         36:d3:33:06:76:53:8f:4b:ec:94:24:c8:ac:b1:24:c3:7e:45:
         41:46:e8:84:bb:09:72:d1:b6:3c:19:3f:7d:b3:b8:e1:dc:5c:
         72:2f:e4:23:dd:4b:46:2b:94:36:db:ea:d5:cb:e2:ac:7a:f9:
         04:1f:49:b7:dd:71:28:9c:02:a8:6a:93:b9:01:d4:6a:79:cb:
         22:32:7d:90:05:60:99:93:95:b6:14:bd:ef:b8:2f:e7:4f:12:
         74:e0:8d:aa:b7:42:e6:07:7a:9f:24:d4:7b:5b:58:b1:10:bb:
         05:d1:73:92:0c:fb:ab:95:8f:8b:9e:da:3f:f6:0f:e4:3f:7d:
         0d:ca:87:e4:e8:84:66:7b:05:9c:8f:6e:8b:3f:92:c1:b1:49:
         7e:9e:53:e2:a5:e4:48:1a:b4:f7:a8:59:38:36:01:58:95:38:
         80:b5:b1:ff:2b:ec:3c:5c:b8:7d:70:0b:d5:b8:f9:3e:45:eb:
         d9:f2:df:fa:de:e6:6e:fc:7f:8b:c6:2b:89:76:9c:4b:4d:92:
         42:d8:cb:ad:65:9d:79:61:f2:c2:38:b1:f8:14:79:29:6c:96:
         0b:1a:f6:7a:06:1d:7d:29:1b:c6:de:f5:ef:a8:73:97:63:0c:
         8e:9f:a6:35:32:ca:da:a5:e6:1b:3b:2e:8a:e9:95:9a:c8:95:
         18:79:29:0b:3d:46:22:fa:45:29:c6:ee:e6:9a:e0:4a:25:79:
         77:ae:58:cc:98:05:35:23:58:a7:d9:77:58:67:f8:9c:36:6d:
         91:9b:11:3f:11:1c:94:91:9c:be:8b:02:de:09:5c:92:70:88:
         53:0f:75:05:3c:60:4b:de:64:bc:b3:ee:ec:10:5e:8d:ff:dc:
         60:13:ba:d6:70:08:4d:15:4e:75:12:83:e0:38:8e:5c:93:10:
         51:93:e4:80:d9:d6:e5:bd:9e:91:56:8b:cd:fc:ab:94:65:d4:
         e2:77:0f:44:c9:1d:f3:23:fd:ee:7f:91:af:c3:70:d1:fa:ae:
         e7:b9:80:d5:64:83:46:3f:e5:49:d5:2b:8f:b3:b3:a9:94:ef:
         03:a2:62:dd:cb:5f:a8:64:f8:42:fd:86:a6:5a:b9:04:5d:22:
         73:95:94:05:70:8c:5d:ef:0f:85:91:6d:13:6e:f2:6d:53:69:
         6a:2f:3e:b0:76:fe:f6:2e
