-----BEGIN CERTIFICATE-----
MIIF1DCCA7ygAwIBAgIFGZAiAAEwDQYJKoZIhvcNAQELBQAweDELMAkGA1UEBhMC
SUwxFTATBgNVBAgTDE1vZGknaW4gSWxpdDEQMA4GA1UEChMHTmV0RnJlZTEVMBMG
A1UECxMMbmV0ZnJlZS5saW5rMSkwJwYDVQQDEyBOZXRGcmVlIFJvb3QgQ0EgWDIg
MTk5MC0yMjAwIFJTQTAgFw05MDAxMDEwMDAwMDBaGA8yMjAwMDEwMTAwMDAwMFow
eDELMAkGA1UEBhMCSUwxFTATBgNVBAgTDE1vZGknaW4gSWxpdDEQMA4GA1UEChMH
TmV0RnJlZTEVMBMGA1UECxMMbmV0ZnJlZS5saW5rMSkwJwYDVQQDEyBOZXRGcmVl
IFJvb3QgQ0EgWDIgMTk5MC0yMjAwIFJTQTCCAiIwDQYJKoZIhvcNAQEBBQADggIP
ADCCAgoCggIBAJYjCN3NJVcyd15pjYvlK4ClncAzkSx7yobwZxJMXLutzFEyv1aF
CPA9pUuIs8m9lDRvQmJQuKPMJM5QaMYk9bxcPxJQnUvj+7O0IZqQ3k2oVJg88JTC
IJxGziu3RAn86q+ZDVtK8CQNF4xytoB38SRxMBL3rPDYvx4Yg0IKqD2ZB3rz2Wym
WVnmnlXVJcrxbb7LJz6nWeH/0kD2zE+Z6mDMER9S9LagPQm/yXN7uAC0FI7LrVjg
skxjOFT+DhElhD0zU6zBAq/bE8txfUJljt/ZHpjOnsm1a0qX0iJ3E3YQ5jn4lF/i
MCwrOkQI5fxsXH3SD1GvO4yimAgR0Bn4+DLdDSpD0RdY8Gl59SYs/A5NKp9R/oF5
M3+kE4QTz5Y0NvlY05ycVS86Q7S6SBI4TAOrzrYdgyihDJI0DKldNAx0Djk1QqdQ
1OX5i+AIYp+llZwBi8qKEjosnpW/pUyfkQzYlHIz7+PBIudRiT53ki55/3ZlyZsu
dCIxn+3Pt+sbRZzbhTqquvVLR3ahC8D8cbBuIdjoxm2gyKLNd9nk2mh3EL9pgvon
C6ISKnvUkr7ru5HeN8cc/Jt+wYyua7qG4CNVpRwjEN0vIdGtdmZTIPWfkaSuDAaJ
jpekrBQylm0HA8y4qAXDXtIY2ykFNBjbGBOgidtrVwAQHnJ36tQuT3XDAgMBAAGj
YzBhMA4GA1UdDwEB/wQEAwIBhjAPBgNVHRMBAf8EBTADAQH/MB0GA1UdDgQWBBRe
Oq2Dj/WVNvskeCwVAMfQNjrkPzAfBgNVHSMEGDAWgBReOq2Dj/WVNvskeCwVAMfQ
NjrkPzANBgkqhkiG9w0BAQsFAAOCAgEAV6w4BIrO0ZeCswpE5cGgQ/mVzhCZ8HHv
i1iAP2m88OJha3H34aNov9+tE4xelxVhhv7yi5r1w38F3zTS9194eaRZfaUuDcX3
8tgGwAjOhWRKpOL5Qn8f/2k/K7Uqb5VsEOm3qQLqUFP3O8FD5eat443YY7ZrS/1d
rERMqb/PsqotSWz4HVLl6n7aagNS3k3BzMfancmExbO35mGjSv6PE3yrJA+4lfmQ
PeboIgSRKtNtlTBmbTSiAa+tWaTteMnEWQ1N8Y3FADPGhSBZKQmxwv+yq5i1aDMn
UVx9i4wkDbupjya06gk2mXUyIue4D/WBELTDDfJEPMx71fqCWssqCKGWzIwMPKI5
gMi6mx6MO6V11JuwB+5w6E7JufHO2HS+CeDL0b47sU6DirGl0V9rVTcX4rIHuDEB
rTlm+DJ1hMdLaDedMcMuM4lhJqiAq7iu7f4KLivkV0jH2y2QSEiseKVZTZK4GF0i
DrrjZkWDl4NJf99ik64d/27BNxkWFZhK4nHODwULrhgJyrhsL05tJY/djHeQAWKN
y9qfLE2kc/IWdz3AC+k89npuJMKy1J1aZlrqCjw4IkVjD7Iae4XaH8/oyQA9aBa1
vWXBrfQww6AJm+RnSlFhxQOrgzCbibR6ILzAcIW/mk6C6vYIAOo5aMPGXszNvFeM
eC53MbtMhdc=
-----END CERTIFICATE-----
Certificate:
    Data:
        Version: 3 (0x2)
        Serial Number: 109792329729 (0x1990220001)
        Signature Algorithm: sha256WithRSAEncryption
        Issuer: C = IL, ST = Modi'in Ilit, O = NetFree, OU = netfree.link, CN = NetFree Root CA X2 1990-2200 RSA
        Validity
            Not Before: Jan  1 00:00:00 1990 GMT
            Not After : Jan  1 00:00:00 2200 GMT
        Subject: C = IL, ST = Modi'in Ilit, O = NetFree, OU = netfree.link, CN = NetFree Root CA X2 1990-2200 RSA
        Subject Public Key Info:
            Public Key Algorithm: rsaEncryption
                RSA Public-Key: (4096 bit)
                Modulus:
                    00:96:23:08:dd:cd:25:57:32:77:5e:69:8d:8b:e5:
                    2b:80:a5:9d:c0:33:91:2c:7b:ca:86:f0:67:12:4c:
                    5c:bb:ad:cc:51:32:bf:56:85:08:f0:3d:a5:4b:88:
                    b3:c9:bd:94:34:6f:42:62:50:b8:a3:cc:24:ce:50:
                    68:c6:24:f5:bc:5c:3f:12:50:9d:4b:e3:fb:b3:b4:
                    21:9a:90:de:4d:a8:54:98:3c:f0:94:c2:20:9c:46:
                    ce:2b:b7:44:09:fc:ea:af:99:0d:5b:4a:f0:24:0d:
                    17:8c:72:b6:80:77:f1:24:71:30:12:f7:ac:f0:d8:
                    bf:1e:18:83:42:0a:a8:3d:99:07:7a:f3:d9:6c:a6:
                    59:59:e6:9e:55:d5:25:ca:f1:6d:be:cb:27:3e:a7:
                    59:e1:ff:d2:40:f6:cc:4f:99:ea:60:cc:11:1f:52:
                    f4:b6:a0:3d:09:bf:c9:73:7b:b8:00:b4:14:8e:cb:
                    ad:58:e0:b2:4c:63:38:54:fe:0e:11:25:84:3d:33:
                    53:ac:c1:02:af:db:13:cb:71:7d:42:65:8e:df:d9:
                    1e:98:ce:9e:c9:b5:6b:4a:97:d2:22:77:13:76:10:
                    e6:39:f8:94:5f:e2:30:2c:2b:3a:44:08:e5:fc:6c:
                    5c:7d:d2:0f:51:af:3b:8c:a2:98:08:11:d0:19:f8:
                    f8:32:dd:0d:2a:43:d1:17:58:f0:69:79:f5:26:2c:
                    fc:0e:4d:2a:9f:51:fe:81:79:33:7f:a4:13:84:13:
                    cf:96:34:36:f9:58:d3:9c:9c:55:2f:3a:43:b4:ba:
                    48:12:38:4c:03:ab:ce:b6:1d:83:28:a1:0c:92:34:
                    0c:a9:5d:34:0c:74:0e:39:35:42:a7:50:d4:e5:f9:
                    8b:e0:08:62:9f:a5:95:9c:01:8b:ca:8a:12:3a:2c:
                    9e:95:bf:a5:4c:9f:91:0c:d8:94:72:33:ef:e3:c1:
                    22:e7:51:89:3e:77:92:2e:79:ff:76:65:c9:9b:2e:
                    74:22:31:9f:ed:cf:b7:eb:1b:45:9c:db:85:3a:aa:
                    ba:f5:4b:47:76:a1:0b:c0:fc:71:b0:6e:21:d8:e8:
                    c6:6d:a0:c8:a2:cd:77:d9:e4:da:68:77:10:bf:69:
                    82:fa:27:0b:a2:12:2a:7b:d4:92:be:eb:bb:91:de:
                    37:c7:1c:fc:9b:7e:c1:8c:ae:6b:ba:86:e0:23:55:
                    a5:1c:23:10:dd:2f:21:d1:ad:76:66:53:20:f5:9f:
                    91:a4:ae:0c:06:89:8e:97:a4:ac:14:32:96:6d:07:
                    03:cc:b8:a8:05:c3:5e:d2:18:db:29:05:34:18:db:
                    18:13:a0:89:db:6b:57:00:10:1e:72:77:ea:d4:2e:
                    4f:75:c3
                Exponent: 65537 (0x10001)
        X509v3 extensions:
            X509v3 Key Usage: critical
                Digital Signature, Certificate Sign, CRL Sign
            X509v3 Basic Constraints: critical
                CA:TRUE
            X509v3 Subject Key Identifier: 
                5E:3A:AD:83:8F:F5:95:36:FB:24:78:2C:15:00:C7:D0:36:3A:E4:3F
            X509v3 Authority Key Identifier: 
                keyid:5E:3A:AD:83:8F:F5:95:36:FB:24:78:2C:15:00:C7:D0:36:3A:E4:3F

    Signature Algorithm: sha256WithRSAEncryption
         57:ac:38:04:8a:ce:d1:97:82:b3:0a:44:e5:c1:a0:43:f9:95:
         ce:10:99:f0:71:ef:8b:58:80:3f:69:bc:f0:e2:61:6b:71:f7:
         e1:a3:68:bf:df:ad:13:8c:5e:97:15:61:86:fe:f2:8b:9a:f5:
         c3:7f:05:df:34:d2:f7:5f:78:79:a4:59:7d:a5:2e:0d:c5:f7:
         f2:d8:06:c0:08:ce:85:64:4a:a4:e2:f9:42:7f:1f:ff:69:3f:
         2b:b5:2a:6f:95:6c:10:e9:b7:a9:02:ea:50:53:f7:3b:c1:43:
         e5:e6:ad:e3:8d:d8:63:b6:6b:4b:fd:5d:ac:44:4c:a9:bf:cf:
         b2:aa:2d:49:6c:f8:1d:52:e5:ea:7e:da:6a:03:52:de:4d:c1:
         cc:c7:da:9d:c9:84:c5:b3:b7:e6:61:a3:4a:fe:8f:13:7c:ab:
         24:0f:b8:95:f9:90:3d:e6:e8:22:04:91:2a:d3:6d:95:30:66:
         6d:34:a2:01:af:ad:59:a4:ed:78:c9:c4:59:0d:4d:f1:8d:c5:
         00:33:c6:85:20:59:29:09:b1:c2:ff:b2:ab:98:b5:68:33:27:
         51:5c:7d:8b:8c:24:0d:bb:a9:8f:26:b4:ea:09:36:99:75:32:
         22:e7:b8:0f:f5:81:10:b4:c3:0d:f2:44:3c:cc:7b:d5:fa:82:
         5a:cb:2a:08:a1:96:cc:8c:0c:3c:a2:39:80:c8:ba:9b:1e:8c:
         3b:a5:75:d4:9b:b0:07:ee:70:e8:4e:c9:b9:f1:ce:d8:74:be:
         09:e0:cb:d1:be:3b:b1:4e:83:8a:b1:a5:d1:5f:6b:55:37:17:
         e2:b2:07:b8:31:01:ad:39:66:f8:32:75:84:c7:4b:68:37:9d:
         31:c3:2e:33:89:61:26:a8:80:ab:b8:ae:ed:fe:0a:2e:2b:e4:
         57:48:c7:db:2d:90:48:48:ac:78:a5:59:4d:92:b8:18:5d:22:
         0e:ba:e3:66:45:83:97:83:49:7f:df:62:93:ae:1d:ff:6e:c1:
         37:19:16:15:98:4a:e2:71:ce:0f:05:0b:ae:18:09:ca:b8:6c:
         2f:4e:6d:25:8f:dd:8c:77:90:01:62:8d:cb:da:9f:2c:4d:a4:
         73:f2:16:77:3d:c0:0b:e9:3c:f6:7a:6e:24:c2:b2:d4:9d:5a:
         66:5a:ea:0a:3c:38:22:45:63:0f:b2:1a:7b:85:da:1f:cf:e8:
         c9:00:3d:68:16:b5:bd:65:c1:ad:f4:30:c3:a0:09:9b:e4:67:
         4a:51:61:c5:03:ab:83:30:9b:89:b4:7a:20:bc:c0:70:85:bf:
         9a:4e:82:ea:f6:08:00:ea:39:68:c3:c6:5e:cc:cd:bc:57:8c:
         78:2e:77:31:bb:4c:85:d7
