-----BEGIN CERTIFICATE-----
MIIFmzCCA4OgAwIBAgIFGZAgNwQwDQYJKoZIhvcNAQELBQAwdTELMAkGA1UEBhMC
SUwxFTATBgNVBAgTDE1vZGknaW4gSWxpdDEQMA4GA1UEChMHTmV0RnJlZTEVMBMG
A1UECxMMbmV0ZnJlZS5saW5rMSYwJAYDVQQDEx1OZXRGcmVlIFJvb3QgQ0EgMTk5
MC0yMDM3IFJTQTAeFw05MDAxMDEwMDAwMDBaFw0zNzAxMDEwMDAwMDBaMHUxCzAJ
BgNVBAYTAklMMRUwEwYDVQQIEwxNb2RpJ2luIElsaXQxEDAOBgNVBAoTB05ldEZy
ZWUxFTATBgNVBAsTDG5ldGZyZWUubGluazEmMCQGA1UEAxMdTmV0RnJlZSBSb290
IENBIDE5OTAtMjAzNyBSU0EwggIiMA0GCSqGSIb3DQEBAQUAA4ICDwAwggIKAoIC
AQDBxo5F/pnakFDGDI2WiR9WTQqLUHa146UzlHqeKeRNRfBpyc5SM67c19q6NwiJ
r+NfiWF7gEKGNbLYq60X5NQ678QE4OxsWDwrjdYsYD8OiIDzQKmAkqjOrNqvE6UB
bA2TwIB3icgthkh8VVbmZCf3CyzAkYJPw3rHNh1rp3vruh03qHIGjPvkfhOAxD0B
IiF/4gsp3uBsn6DtTH/FcnrXKA5JLUzQuNT/KffCRj/73FDqLqp1IPt9vPgO/tOQ
Ml4wyibU4TxM4+XPWCtL9mey1R4/EDr4C4KvX2T31S6lzRtboDyCfKivmW1i5CDp
xIFsaIyimyRAnZ88OlnKrVex5aRKlBKOciTx8HEa80f5xvGAVL9LmKzKwojh2cc9
SmnnL6CH+t6ZQzeGukwScrhp9kMGMD9zdU6bEtsaBNmoV7G+lti1+oDWtah5s4HO
nfPY4qqrxWDc/qI9/EWr5SVnfsBKyiSBhkriMuEHDMtXTBlhmiY1WMelx5BCImyu
iomNcoxU2IWvNuyrqIQWk97Mwv6ES1UqqH3Gl7GgeYAhB/Y9+j8Nz8hpI4KmZk2I
OkE6dluIG2/yHAAp5oVHbdKUu48gQ55ONDq+LgEOebYWTXD+QwODam7GPqzLmCH4
/Gr0aG7Tc8nu3lFCAc8ZqdMN1UQsK4KP5DG3PhG2SFTSeQIDAQABozIwMDAPBgNV
HRMBAf8EBTADAQH/MB0GA1UdDgQWBBR18vBucvd1j4md/g9eyP+Lp3vFdjANBgkq
hkiG9w0BAQsFAAOCAgEALM0kOPyWp3/pEFhlZrllsSOXo4K0pbg+QNuwRuFBskkq
iII4sOkb5pknq/ozXxXDP9F01GdY6o8WVPBsmdPxBNCAkvBwp3aepTZJbiuKD9nB
24W0azEuKGDDU2VOUe3ojGWML3zAK6xbitmtB0HZ4vNJPkfq+Wl2hqElMssWhK/P
gPgWvISuuFYMPtwk/fNII+vb8ModB5zH3dn7eqYy00budvKgXJzpVf1V4k0vBZ1z
y3SBEtWgaiN40TkHtw7dHlvyIRHzT7jsBj9f9e+31/RBhmeo9IohZULtqoOaQkop
AJCb6wL3dD4WdIkiylkhx14hoBha8JUYRKjuIwgQvPj7HXmwnQPx+n+pEXWK7CcI
Zu9EEreAhrxyKgyZM6iF+EnwekyVXPV8TNUFvmcuUtaj7C+yRXHCx1Q7uHszMLfN
Eo9Vj+mxr7IUiamf3AHwly5r/V9Cj1VvWR3YYLT98EXyoAHovFbysQ5ggQhPjAak
S4vrfjfQ6ji5Cr2A3niQQfrSWmyGOYL/DJqvVuGpB8c5JPo81GA2nSAwp40CZkT6
a+0O0pNauf0+fsRt12uXiTsDKEug7rSmBkRczj6i+QTTHaEibIsP6T2xtHV4zmeu
jxYFDgIEuORfgiKUI2udVq7hrSoJnxmw1rpKeh6hI/Eye7VuSLaADk6mNmnK5bM=
-----END CERTIFICATE-----
Certificate:
    Data:
        Version: 3 (0x2)
        Serial Number: 109792212740 (0x1990203704)
        Signature Algorithm: sha256WithRSAEncryption
        Issuer: C = IL, ST = Modi'in Ilit, O = NetFree, OU = netfree.link, CN = NetFree Root CA 1990-2037 RSA
        Validity
            Not Before: Jan  1 00:00:00 1990 GMT
            Not After : Jan  1 00:00:00 2037 GMT
        Subject: C = IL, ST = Modi'in Ilit, O = NetFree, OU = netfree.link, CN = NetFree Root CA 1990-2037 RSA
        Subject Public Key Info:
            Public Key Algorithm: rsaEncryption
                RSA Public-Key: (4096 bit)
                Modulus:
                    00:c1:c6:8e:45:fe:99:da:90:50:c6:0c:8d:96:89:
                    1f:56:4d:0a:8b:50:76:b5:e3:a5:33:94:7a:9e:29:
                    e4:4d:45:f0:69:c9:ce:52:33:ae:dc:d7:da:ba:37:
                    08:89:af:e3:5f:89:61:7b:80:42:86:35:b2:d8:ab:
                    ad:17:e4:d4:3a:ef:c4:04:e0:ec:6c:58:3c:2b:8d:
                    d6:2c:60:3f:0e:88:80:f3:40:a9:80:92:a8:ce:ac:
                    da:af:13:a5:01:6c:0d:93:c0:80:77:89:c8:2d:86:
                    48:7c:55:56:e6:64:27:f7:0b:2c:c0:91:82:4f:c3:
                    7a:c7:36:1d:6b:a7:7b:eb:ba:1d:37:a8:72:06:8c:
                    fb:e4:7e:13:80:c4:3d:01:22:21:7f:e2:0b:29:de:
                    e0:6c:9f:a0:ed:4c:7f:c5:72:7a:d7:28:0e:49:2d:
                    4c:d0:b8:d4:ff:29:f7:c2:46:3f:fb:dc:50:ea:2e:
                    aa:75:20:fb:7d:bc:f8:0e:fe:d3:90:32:5e:30:ca:
                    26:d4:e1:3c:4c:e3:e5:cf:58:2b:4b:f6:67:b2:d5:
                    1e:3f:10:3a:f8:0b:82:af:5f:64:f7:d5:2e:a5:cd:
                    1b:5b:a0:3c:82:7c:a8:af:99:6d:62:e4:20:e9:c4:
                    81:6c:68:8c:a2:9b:24:40:9d:9f:3c:3a:59:ca:ad:
                    57:b1:e5:a4:4a:94:12:8e:72:24:f1:f0:71:1a:f3:
                    47:f9:c6:f1:80:54:bf:4b:98:ac:ca:c2:88:e1:d9:
                    c7:3d:4a:69:e7:2f:a0:87:fa:de:99:43:37:86:ba:
                    4c:12:72:b8:69:f6:43:06:30:3f:73:75:4e:9b:12:
                    db:1a:04:d9:a8:57:b1:be:96:d8:b5:fa:80:d6:b5:
                    a8:79:b3:81:ce:9d:f3:d8:e2:aa:ab:c5:60:dc:fe:
                    a2:3d:fc:45:ab:e5:25:67:7e:c0:4a:ca:24:81:86:
                    4a:e2:32:e1:07:0c:cb:57:4c:19:61:9a:26:35:58:
                    c7:a5:c7:90:42:22:6c:ae:8a:89:8d:72:8c:54:d8:
                    85:af:36:ec:ab:a8:84:16:93:de:cc:c2:fe:84:4b:
                    55:2a:a8:7d:c6:97:b1:a0:79:80:21:07:f6:3d:fa:
                    3f:0d:cf:c8:69:23:82:a6:66:4d:88:3a:41:3a:76:
                    5b:88:1b:6f:f2:1c:00:29:e6:85:47:6d:d2:94:bb:
                    8f:20:43:9e:4e:34:3a:be:2e:01:0e:79:b6:16:4d:
                    70:fe:43:03:83:6a:6e:c6:3e:ac:cb:98:21:f8:fc:
                    6a:f4:68:6e:d3:73:c9:ee:de:51:42:01:cf:19:a9:
                    d3:0d:d5:44:2c:2b:82:8f:e4:31:b7:3e:11:b6:48:
                    54:d2:79
                Exponent: 65537 (0x10001)
        X509v3 extensions:
            X509v3 Basic Constraints: critical
                CA:TRUE
            X509v3 Subject Key Identifier: 
                75:F2:F0:6E:72:F7:75:8F:89:9D:FE:0F:5E:C8:FF:8B:A7:7B:C5:76
    Signature Algorithm: sha256WithRSAEncryption
         2c:cd:24:38:fc:96:a7:7f:e9:10:58:65:66:b9:65:b1:23:97:
         a3:82:b4:a5:b8:3e:40:db:b0:46:e1:41:b2:49:2a:88:82:38:
         b0:e9:1b:e6:99:27:ab:fa:33:5f:15:c3:3f:d1:74:d4:67:58:
         ea:8f:16:54:f0:6c:99:d3:f1:04:d0:80:92:f0:70:a7:76:9e:
         a5:36:49:6e:2b:8a:0f:d9:c1:db:85:b4:6b:31:2e:28:60:c3:
         53:65:4e:51:ed:e8:8c:65:8c:2f:7c:c0:2b:ac:5b:8a:d9:ad:
         07:41:d9:e2:f3:49:3e:47:ea:f9:69:76:86:a1:25:32:cb:16:
         84:af:cf:80:f8:16:bc:84:ae:b8:56:0c:3e:dc:24:fd:f3:48:
         23:eb:db:f0:ca:1d:07:9c:c7:dd:d9:fb:7a:a6:32:d3:46:ee:
         76:f2:a0:5c:9c:e9:55:fd:55:e2:4d:2f:05:9d:73:cb:74:81:
         12:d5:a0:6a:23:78:d1:39:07:b7:0e:dd:1e:5b:f2:21:11:f3:
         4f:b8:ec:06:3f:5f:f5:ef:b7:d7:f4:41:86:67:a8:f4:8a:21:
         65:42:ed:aa:83:9a:42:4a:29:00:90:9b:eb:02:f7:74:3e:16:
         74:89:22:ca:59:21:c7:5e:21:a0:18:5a:f0:95:18:44:a8:ee:
         23:08:10:bc:f8:fb:1d:79:b0:9d:03:f1:fa:7f:a9:11:75:8a:
         ec:27:08:66:ef:44:12:b7:80:86:bc:72:2a:0c:99:33:a8:85:
         f8:49:f0:7a:4c:95:5c:f5:7c:4c:d5:05:be:67:2e:52:d6:a3:
         ec:2f:b2:45:71:c2:c7:54:3b:b8:7b:33:30:b7:cd:12:8f:55:
         8f:e9:b1:af:b2:14:89:a9:9f:dc:01:f0:97:2e:6b:fd:5f:42:
         8f:55:6f:59:1d:d8:60:b4:fd:f0:45:f2:a0:01:e8:bc:56:f2:
         b1:0e:60:81:08:4f:8c:06:a4:4b:8b:eb:7e:37:d0:ea:38:b9:
         0a:bd:80:de:78:90:41:fa:d2:5a:6c:86:39:82:ff:0c:9a:af:
         56:e1:a9:07:c7:39:24:fa:3c:d4:60:36:9d:20:30:a7:8d:02:
         66:44:fa:6b:ed:0e:d2:93:5a:b9:fd:3e:7e:c4:6d:d7:6b:97:
         89:3b:03:28:4b:a0:ee:b4:a6:06:44:5c:ce:3e:a2:f9:04:d3:
         1d:a1:22:6c:8b:0f:e9:3d:b1:b4:75:78:ce:67:ae:8f:16:05:
         0e:02:04:b8:e4:5f:82:22:94:23:6b:9d:56:ae:e1:ad:2a:09:
         9f:19:b0:d6:ba:4a:7a:1e:a1:23:f1:32:7b:b5:6e:48:b6:80:
         0e:4e:a6:36:69:ca:e5:b3
