-----BEGIN CERTIFICATE-----
MIIDwzCCAqugAwIBAgIJAPum3yy7OirzMA0GCSqGSIb3DQEBCwUAMHgxCzAJBgNV
BAYTAklMMQ8wDQYDVQQIDAZpc3JhZWwxEjAQBgNVBAcMCUplcnVzYWxlbTEQMA4G
A1UECgwHTmV0RnJlZTEVMBMGA1UECwwMbmV0ZnJlZS5saW5rMRswGQYDVQQDDBJO
ZXRGcmVlIFNpZ24gLCAwMTEwHhcNMTgxMjE0MDAwOTQ3WhcNMjgxMDIyMDAwOTQ3
WjB4MQswCQYDVQQGEwJJTDEPMA0GA1UECAwGaXNyYWVsMRIwEAYDVQQHDAlKZXJ1
c2FsZW0xEDAOBgNVBAoMB05ldEZyZWUxFTATBgNVBAsMDG5ldGZyZWUubGluazEb
MBkGA1UEAwwSTmV0RnJlZSBTaWduICwgMDExMIIBIjANBgkqhkiG9w0BAQEFAAOC
AQ8AMIIBCgKCAQEAycFKrgcA4bqY1SfLMkWR3mAhrx+FOQMq4ZawUAkYULf0vwyl
V6vvRLsgHtdnpmMYlraPDmdF54yapfwC5+R5k6AUPP+hOqcSOlIp8309uFYSQQAe
3Vg5iLxP0gab9kj1qG4hYhAasB66MguKGQDrrQ8AHOxJXx6zXCQn9tpj0U0GUJJQ
kQaKRaHNGexkbjQ6kAwuU9kEBeFmW/LbU/9CMpAeZ+z26OmD2SJmMv/clRgiZgQb
jIXRphCE4oMOvWflbVdo7Bb9xzfXAQnOLA4amFXqXsKNEGqvDlaJkm0/E00Rhk1S
AfJkQZivXnZiD2DwpsmWSYm0Er4kx7Y1O7OeOwIDAQABo1AwTjAdBgNVHQ4EFgQU
Qxzo9SVL9DVyPA1YhzXkjdsOxUUwHwYDVR0jBBgwFoAUQxzo9SVL9DVyPA1YhzXk
jdsOxUUwDAYDVR0TBAUwAwEB/zANBgkqhkiG9w0BAQsFAAOCAQEAQS4VntCcdRtZ
kvsflPaxeBeYgqc8nd6tKRnuZZM+VLw5HbMplR4GdS0AnnTpydN078hvQbXCqgJk
iPiVwHvSvZmJQ09qROWAehBNs7vtCnYLEEOCL9MwieYWPENoJgGiuM9ufsp8dums
DERgouLG9AcSTwOolvQrWzcz4qF6ckez6fvnFu9X9kVxc7q73uAbOxNMyuH/cFAs
MmoU995OK8KO2zXHHP+jA+AwIPhEoS6WIY5BW/tntd/u0DZHJq3QkWjaaSZ08AgY
gcua3bKr4z5XBu/yP7gUdHEBfJQ8Aqh5PHoCqRIcJbJ0EfjjEO5JLXA6fSa3pv0w
jkAbQPXUww==
-----END CERTIFICATE-----
Certificate:
    Data:
        Version: 3 (0x2)
        Serial Number:
            fb:a6:df:2c:bb:3a:2a:f3
    Signature Algorithm: sha256WithRSAEncryption
        Issuer: C = IL, ST = israel, L = Jerusalem, O = NetFree, OU = netfree.link, CN = "NetFree Sign , 011"
        Validity
            Not Before: Dec 14 00:09:47 2018 GMT
            Not After : Oct 22 00:09:47 2028 GMT
        Subject: C = IL, ST = israel, L = Jerusalem, O = NetFree, OU = netfree.link, CN = "NetFree Sign , 011"
        Subject Public Key Info:
            Public Key Algorithm: rsaEncryption
                Public-Key: (2048 bit)
                Modulus:
                    00:c9:c1:4a:ae:07:00:e1:ba:98:d5:27:cb:32:45:
                    91:de:60:21:af:1f:85:39:03:2a:e1:96:b0:50:09:
                    18:50:b7:f4:bf:0c:a5:57:ab:ef:44:bb:20:1e:d7:
                    67:a6:63:18:96:b6:8f:0e:67:45:e7:8c:9a:a5:fc:
                    02:e7:e4:79:93:a0:14:3c:ff:a1:3a:a7:12:3a:52:
                    29:f3:7d:3d:b8:56:12:41:00:1e:dd:58:39:88:bc:
                    4f:d2:06:9b:f6:48:f5:a8:6e:21:62:10:1a:b0:1e:
                    ba:32:0b:8a:19:00:eb:ad:0f:00:1c:ec:49:5f:1e:
                    b3:5c:24:27:f6:da:63:d1:4d:06:50:92:50:91:06:
                    8a:45:a1:cd:19:ec:64:6e:34:3a:90:0c:2e:53:d9:
                    04:05:e1:66:5b:f2:db:53:ff:42:32:90:1e:67:ec:
                    f6:e8:e9:83:d9:22:66:32:ff:dc:95:18:22:66:04:
                    1b:8c:85:d1:a6:10:84:e2:83:0e:bd:67:e5:6d:57:
                    68:ec:16:fd:c7:37:d7:01:09:ce:2c:0e:1a:98:55:
                    ea:5e:c2:8d:10:6a:af:0e:56:89:92:6d:3f:13:4d:
                    11:86:4d:52:01:f2:64:41:98:af:5e:76:62:0f:60:
                    f0:a6:c9:96:49:89:b4:12:be:24:c7:b6:35:3b:b3:
                    9e:3b
                Exponent: 65537 (0x10001)
        X509v3 extensions:
            X509v3 Subject Key Identifier: 
                43:1C:E8:F5:25:4B:F4:35:72:3C:0D:58:87:35:E4:8D:DB:0E:C5:45
            X509v3 Authority Key Identifier: 
                keyid:43:1C:E8:F5:25:4B:F4:35:72:3C:0D:58:87:35:E4:8D:DB:0E:C5:45

            X509v3 Basic Constraints: 
                CA:TRUE
    Signature Algorithm: sha256WithRSAEncryption
         41:2e:15:9e:d0:9c:75:1b:59:92:fb:1f:94:f6:b1:78:17:98:
         82:a7:3c:9d:de:ad:29:19:ee:65:93:3e:54:bc:39:1d:b3:29:
         95:1e:06:75:2d:00:9e:74:e9:c9:d3:74:ef:c8:6f:41:b5:c2:
         aa:02:64:88:f8:95:c0:7b:d2:bd:99:89:43:4f:6a:44:e5:80:
         7a:10:4d:b3:bb:ed:0a:76:0b:10:43:82:2f:d3:30:89:e6:16:
         3c:43:68:26:01:a2:b8:cf:6e:7e:ca:7c:76:e9:ac:0c:44:60:
         a2:e2:c6:f4:07:12:4f:03:a8:96:f4:2b:5b:37:33:e2:a1:7a:
         72:47:b3:e9:fb:e7:16:ef:57:f6:45:71:73:ba:bb:de:e0:1b:
         3b:13:4c:ca:e1:ff:70:50:2c:32:6a:14:f7:de:4e:2b:c2:8e:
         db:35:c7:1c:ff:a3:03:e0:30:20:f8:44:a1:2e:96:21:8e:41:
         5b:fb:67:b5:df:ee:d0:36:47:26:ad:d0:91:68:da:69:26:74:
         f0:08:18:81:cb:9a:dd:b2:ab:e3:3e:57:06:ef:f2:3f:b8:14:
         74:71:01:7c:94:3c:02:a8:79:3c:7a:02:a9:12:1c:25:b2:74:
         11:f8:e3:10:ee:49:2d:70:3a:7d:26:b7:a6:fd:30:8e:40:1b:
         40:f5:d4:c3
